Certificate:
    Data:
        Version: 3 (0x2)
        Serial Number: 41 (0x29)
        Signature Algorithm: sha256WithRSAEncryption
        Issuer: C=FR, ST=France, L=Grenoble, O=Belledonne Communications, OU=LAB, CN=Jehan Monnier/emailAddress=jehan.monnier@belledonne-communications.com
        Validity
            Not Before: May 28 06:52:37 2026 GMT
            Not After : May 25 06:52:37 2036 GMT
        Subject: C=FR, ST=France, L=Grenoble, O=Belledonne Communications, CN=User 2
        Subject Public Key Info:
            Public Key Algorithm: rsaEncryption
                Public-Key: (2048 bit)
                Modulus:
                    00:b9:81:2b:6b:a3:13:81:32:d2:ca:bf:49:ba:34:
                    3c:61:c4:0f:1e:bf:8a:7c:c5:60:46:07:d6:3c:09:
                    d7:ab:79:29:56:75:08:b1:ed:8b:06:81:81:c7:41:
                    8c:5c:68:e3:3d:66:81:27:fa:48:1c:db:8c:e8:80:
                    22:e5:b8:ae:f9:8a:57:de:31:11:8c:95:c4:d2:42:
                    96:b6:ee:3e:7c:51:e7:a9:26:de:97:a9:8b:f8:f1:
                    ff:b2:d1:00:7b:cf:78:01:27:eb:43:93:37:ab:5a:
                    5b:70:42:e8:a6:0a:87:e3:f7:25:be:1f:51:e6:ad:
                    15:ba:2c:5e:8f:c1:6c:f4:26:3c:e0:d7:7d:04:01:
                    0c:e0:c6:74:3e:71:90:7e:7f:af:47:e7:f7:ed:9c:
                    aa:88:b2:4a:c0:e8:41:fe:9c:d5:18:70:8a:63:cc:
                    76:d6:48:33:a1:64:f9:ec:17:d3:e7:13:b3:76:25:
                    5c:d1:1c:3f:47:aa:da:50:5a:4a:a6:65:d8:75:8c:
                    15:4c:8a:0d:d8:be:2f:30:98:85:10:f8:c0:a9:bd:
                    fc:1b:b4:c9:98:71:fa:68:59:72:3a:40:90:87:68:
                    93:c4:15:07:7f:04:6e:d7:40:95:f6:71:ce:1e:97:
                    a9:6a:71:8f:f9:7f:7b:c4:b2:52:5e:55:a8:f8:13:
                    ed:a9
                Exponent: 65537 (0x10001)
        X509v3 extensions:
            X509v3 Basic Constraints: 
                CA:FALSE
            X509v3 Key Usage: critical
                Digital Signature, Key Encipherment
            X509v3 Extended Key Usage: 
                TLS Web Client Authentication, TLS Web Server Authentication
            X509v3 Subject Key Identifier: 
                BA:76:11:14:0B:EF:DC:00:D5:F1:34:3F:B7:60:D4:B2:2B:5D:45:20
            X509v3 Authority Key Identifier: 
                CE:E5:43:64:13:DE:81:72:88:F5:8F:C6:15:C7:64:E5:4F:B2:1D:B4
            X509v3 Subject Alternative Name: 
                URI:sip:user_2@sip.example.org
    Signature Algorithm: sha256WithRSAEncryption
    Signature Value:
        2a:61:f9:1b:64:e9:5e:68:c1:d7:09:24:0a:8b:7f:6f:94:56:
        76:6b:44:28:12:1a:f0:14:4a:9e:0a:4e:ef:bd:5d:cd:b1:57:
        99:37:de:cb:af:5d:53:ad:d3:b9:6d:71:bb:92:d4:96:7b:e2:
        91:ec:6f:96:9e:45:0c:c6:f2:a6:7e:87:4c:d5:bf:9f:c5:a1:
        d4:80:6c:15:e2:c3:83:c2:f2:2c:0e:32:b8:13:b4:d7:08:f8:
        e1:0c:25:ab:b1:20:03:af:eb:bf:02:eb:da:df:a3:fd:a4:07:
        bf:5a:04:49:a8:72:e3:03:7f:23:0e:d3:d8:28:ef:42:24:e5:
        8a:e6:a7:b3:9c:5c:85:fe:1d:8b:4e:bc:bb:d5:0d:c3:52:ed:
        ad:30:02:ce:b3:02:c7:ca:65:03:35:3f:8e:d9:99:83:97:14:
        83:ca:50:75:0e:68:3b:fc:10:e6:d5:28:66:2c:ba:75:f0:f2:
        ee:ea:2c:82:a1:8a:7e:da:e9:7e:1e:d4:ee:9a:51:b3:33:27:
        7c:17:ea:28:24:c8:da:b9:76:6a:61:7a:ba:6e:05:a3:e2:ac:
        a1:10:70:e5:56:78:b4:6a:84:3b:94:34:62:d5:81:00:cf:19:
        71:d3:77:df:d5:92:10:bc:94:65:d6:8d:1b:ab:d2:99:47:44:
        fc:ec:59:52
-----BEGIN CERTIFICATE-----
MIIEPjCCAyagAwIBAgIBKTANBgkqhkiG9w0BAQsFADCBtzELMAkGA1UEBhMCRlIx
DzANBgNVBAgMBkZyYW5jZTERMA8GA1UEBwwIR3Jlbm9ibGUxIjAgBgNVBAoMGUJl
bGxlZG9ubmUgQ29tbXVuaWNhdGlvbnMxDDAKBgNVBAsMA0xBQjEWMBQGA1UEAwwN
SmVoYW4gTW9ubmllcjE6MDgGCSqGSIb3DQEJARYramVoYW4ubW9ubmllckBiZWxs
ZWRvbm5lLWNvbW11bmljYXRpb25zLmNvbTAeFw0yNjA1MjgwNjUyMzdaFw0zNjA1
MjUwNjUyMzdaMGYxCzAJBgNVBAYTAkZSMQ8wDQYDVQQIDAZGcmFuY2UxETAPBgNV
BAcMCEdyZW5vYmxlMSIwIAYDVQQKDBlCZWxsZWRvbm5lIENvbW11bmljYXRpb25z
MQ8wDQYDVQQDDAZVc2VyIDIwggEiMA0GCSqGSIb3DQEBAQUAA4IBDwAwggEKAoIB
AQC5gStroxOBMtLKv0m6NDxhxA8ev4p8xWBGB9Y8CdereSlWdQix7YsGgYHHQYxc
aOM9ZoEn+kgc24zogCLluK75ilfeMRGMlcTSQpa27j58UeepJt6XqYv48f+y0QB7
z3gBJ+tDkzerWltwQuimCofj9yW+H1HmrRW6LF6PwWz0Jjzg130EAQzgxnQ+cZB+
f69H5/ftnKqIskrA6EH+nNUYcIpjzHbWSDOhZPnsF9PnE7N2JVzRHD9HqtpQWkqm
Zdh1jBVMig3Yvi8wmIUQ+MCpvfwbtMmYcfpoWXI6QJCHaJPEFQd/BG7XQJX2cc4e
l6lqcY/5f3vEslJeVaj4E+2pAgMBAAGjgaQwgaEwCQYDVR0TBAIwADAOBgNVHQ8B
Af8EBAMCBaAwHQYDVR0lBBYwFAYIKwYBBQUHAwIGCCsGAQUFBwMBMB0GA1UdDgQW
BBS6dhEUC+/cANXxND+3YNSyK11FIDAfBgNVHSMEGDAWgBTO5UNkE96Bcoj1j8YV
x2TlT7IdtDAlBgNVHREEHjAchhpzaXA6dXNlcl8yQHNpcC5leGFtcGxlLm9yZzAN
BgkqhkiG9w0BAQsFAAOCAQEAKmH5G2TpXmjB1wkkCot/b5RWdmtEKBIa8BRKngpO
771dzbFXmTfey69dU63TuW1xu5LUlnvikexvlp5FDMbypn6HTNW/n8Wh1IBsFeLD
g8LyLA4yuBO01wj44Qwlq7EgA6/rvwLr2t+j/aQHv1oESahy4wN/Iw7T2CjvQiTl
iuans5xchf4di068u9UNw1LtrTACzrMCx8plAzU/jtmZg5cUg8pQdQ5oO/wQ5tUo
Ziy6dfDy7uosgqGKftrpfh7U7ppRszMnfBfqKCTI2rl2amF6um4Fo+KsoRBw5VZ4
tGqEO5Q0YtWBAM8ZcdN339WSELyUZdaNG6vSmUdE/OxZUg==
-----END CERTIFICATE-----
