Certificate:
    Data:
        Version: 3 (0x2)
        Serial Number: 40 (0x28)
        Signature Algorithm: sha256WithRSAEncryption
        Issuer: C=FR, ST=France, L=Grenoble, O=Belledonne Communications, OU=LAB, CN=Jehan Monnier/emailAddress=jehan.monnier@belledonne-communications.com
        Validity
            Not Before: Apr 27 21:41:36 2026 GMT
            Not After : Apr 24 21:41:36 2036 GMT
        Subject: C=FR, ST=France, L=Grenoble, O=Belledonne Communications, CN=Jehan Monnier
        Subject Public Key Info:
            Public Key Algorithm: rsaEncryption
                Public-Key: (2048 bit)
                Modulus:
                    00:b7:5a:ee:6f:25:b3:e1:cf:29:2a:fb:55:57:05:
                    18:2d:f7:91:eb:99:8b:a3:c9:9a:b4:45:28:54:4b:
                    b0:2a:ef:2e:ab:71:a9:c4:b6:78:3d:04:91:91:75:
                    cb:a6:07:a2:37:4d:eb:5b:67:0d:a2:7b:cc:08:72:
                    9c:21:6a:c6:ba:b2:e0:de:4c:9f:89:23:00:51:2f:
                    83:c4:e1:3a:60:11:44:69:e7:dd:51:57:ef:e2:0c:
                    ad:f8:4e:cd:81:46:84:be:e8:60:d0:ce:00:3c:3b:
                    67:96:29:db:0f:ee:10:a9:f8:0c:cf:bb:45:bc:f2:
                    f7:ea:3e:b3:9c:4d:20:bd:8c:8c:82:b6:d1:76:23:
                    9a:8e:4a:80:e2:f9:14:e9:f0:90:8c:1a:21:fd:2b:
                    8e:30:56:5d:38:37:77:d5:1f:fb:66:8d:86:ce:d7:
                    7b:83:96:97:d9:08:6d:77:a5:bb:86:27:e2:ef:5d:
                    71:cb:19:6e:47:32:6b:eb:5d:2f:6c:d5:d9:d1:45:
                    e7:50:ab:f7:b8:b2:f6:13:a9:84:fb:ed:6a:2e:93:
                    ef:2f:84:57:48:c7:59:29:a5:07:3d:e5:e4:0e:c8:
                    d7:59:7b:d4:26:83:15:21:1d:c6:b3:05:07:28:12:
                    40:21:e7:50:c7:b6:97:08:2d:e5:11:21:a1:7e:c7:
                    3e:6f
                Exponent: 65537 (0x10001)
        X509v3 extensions:
            X509v3 Basic Constraints: 
                CA:FALSE
            Netscape Comment: 
                OpenSSL Generated Certificate
            X509v3 Subject Key Identifier: 
                CB:AA:94:15:E3:17:D1:AD:92:84:51:8F:B4:11:AF:E4:B6:B7:6F:32
            X509v3 Authority Key Identifier: 
                CE:E5:43:64:13:DE:81:72:88:F5:8F:C6:15:C7:64:E5:4F:B2:1D:B4
            X509v3 Subject Alternative Name: 
                DNS:linphone-dtls-default-identity
    Signature Algorithm: sha256WithRSAEncryption
    Signature Value:
        8d:c2:03:c9:db:11:1e:db:4d:a4:20:24:83:02:7b:68:7f:fe:
        37:a7:85:a7:a0:37:8b:a7:c1:8a:d1:ac:3e:3a:f2:b6:e1:77:
        bd:1d:a6:ab:15:53:e4:c5:17:29:31:86:b7:5d:fe:3a:7e:c4:
        85:b0:8c:79:40:fc:c4:e7:b3:28:e3:78:57:f6:a7:53:f9:ef:
        40:99:26:df:ad:91:7b:ee:61:c9:b0:04:5d:c3:f3:ed:40:f0:
        b4:2a:e7:4b:c7:83:8a:c5:fc:6c:54:7d:a6:07:db:b1:20:79:
        e4:2e:80:4b:22:55:53:44:1b:42:ad:93:fa:f9:c4:fd:9d:df:
        71:d3:16:88:4e:e4:f6:8d:59:29:e4:1b:3f:b6:93:b8:e3:46:
        fa:ae:bc:07:a0:13:83:fc:03:e3:d0:ae:f3:2d:e9:e5:24:58:
        64:1a:d5:9b:4a:10:d2:18:b3:cc:17:71:16:96:df:25:8a:df:
        20:49:99:72:df:75:bd:42:89:00:0f:f6:22:18:ee:09:af:fc:
        59:16:72:c9:99:40:e5:43:7c:d8:8e:6b:64:9d:96:e3:72:9e:
        fb:33:14:2a:d8:a1:d6:1b:bd:e8:8a:6f:db:5f:2d:55:a8:4b:
        60:2b:37:2d:9e:6d:88:2e:d9:bb:cb:43:f0:b8:09:3e:33:aa:
        6d:f1:e0:a6
-----BEGIN CERTIFICATE-----
MIIESDCCAzCgAwIBAgIBKDANBgkqhkiG9w0BAQsFADCBtzELMAkGA1UEBhMCRlIx
DzANBgNVBAgMBkZyYW5jZTERMA8GA1UEBwwIR3Jlbm9ibGUxIjAgBgNVBAoMGUJl
bGxlZG9ubmUgQ29tbXVuaWNhdGlvbnMxDDAKBgNVBAsMA0xBQjEWMBQGA1UEAwwN
SmVoYW4gTW9ubmllcjE6MDgGCSqGSIb3DQEJARYramVoYW4ubW9ubmllckBiZWxs
ZWRvbm5lLWNvbW11bmljYXRpb25zLmNvbTAeFw0yNjA0MjcyMTQxMzZaFw0zNjA0
MjQyMTQxMzZaMG0xCzAJBgNVBAYTAkZSMQ8wDQYDVQQIDAZGcmFuY2UxETAPBgNV
BAcMCEdyZW5vYmxlMSIwIAYDVQQKDBlCZWxsZWRvbm5lIENvbW11bmljYXRpb25z
MRYwFAYDVQQDDA1KZWhhbiBNb25uaWVyMIIBIjANBgkqhkiG9w0BAQEFAAOCAQ8A
MIIBCgKCAQEAt1rubyWz4c8pKvtVVwUYLfeR65mLo8matEUoVEuwKu8uq3GpxLZ4
PQSRkXXLpgeiN03rW2cNonvMCHKcIWrGurLg3kyfiSMAUS+DxOE6YBFEaefdUVfv
4gyt+E7NgUaEvuhg0M4APDtnlinbD+4QqfgMz7tFvPL36j6znE0gvYyMgrbRdiOa
jkqA4vkU6fCQjBoh/SuOMFZdODd31R/7Zo2Gztd7g5aX2Qhtd6W7hifi711xyxlu
RzJr610vbNXZ0UXnUKv3uLL2E6mE++1qLpPvL4RXSMdZKaUHPeXkDsjXWXvUJoMV
IR3GswUHKBJAIedQx7aXCC3lESGhfsc+bwIDAQABo4GnMIGkMAkGA1UdEwQCMAAw
LAYJYIZIAYb4QgENBB8WHU9wZW5TU0wgR2VuZXJhdGVkIENlcnRpZmljYXRlMB0G
A1UdDgQWBBTLqpQV4xfRrZKEUY+0Ea/ktrdvMjAfBgNVHSMEGDAWgBTO5UNkE96B
coj1j8YVx2TlT7IdtDApBgNVHREEIjAggh5saW5waG9uZS1kdGxzLWRlZmF1bHQt
aWRlbnRpdHkwDQYJKoZIhvcNAQELBQADggEBAI3CA8nbER7bTaQgJIMCe2h//jen
haegN4unwYrRrD468rbhd70dpqsVU+TFFykxhrdd/jp+xIWwjHlA/MTnsyjjeFf2
p1P570CZJt+tkXvuYcmwBF3D8+1A8LQq50vHg4rF/GxUfaYH27EgeeQugEsiVVNE
G0Ktk/r5xP2d33HTFohO5PaNWSnkGz+2k7jjRvquvAegE4P8A+PQrvMt6eUkWGQa
1ZtKENIYs8wXcRaW3yWK3yBJmXLfdb1CiQAP9iIY7gmv/FkWcsmZQOVDfNiOa2Sd
luNynvszFCrYodYbveiKb9tfLVWoS2ArNy2ebYgu2bvLQ/C4CT4zqm3x4KY=
-----END CERTIFICATE-----
-----BEGIN PRIVATE KEY-----
MIIEvgIBADANBgkqhkiG9w0BAQEFAASCBKgwggSkAgEAAoIBAQC3Wu5vJbPhzykq
+1VXBRgt95HrmYujyZq0RShUS7Aq7y6rcanEtng9BJGRdcumB6I3TetbZw2ie8wI
cpwhasa6suDeTJ+JIwBRL4PE4TpgEURp591RV+/iDK34Ts2BRoS+6GDQzgA8O2eW
KdsP7hCp+AzPu0W88vfqPrOcTSC9jIyCttF2I5qOSoDi+RTp8JCMGiH9K44wVl04
N3fVH/tmjYbO13uDlpfZCG13pbuGJ+LvXXHLGW5HMmvrXS9s1dnRRedQq/e4svYT
qYT77Wouk+8vhFdIx1kppQc95eQOyNdZe9QmgxUhHcazBQcoEkAh51DHtpcILeUR
IaF+xz5vAgMBAAECggEABIahLqtfeqCKjRrBtNF8EwJl65fElSK2uvvSbrlxj0jy
vd08sHQQ/4lh1UimYe8VTeH4zPt8ICy7Ha6qjb6dFvwV+RbEgPX7hFJObkLHyWat
UCOFJVFgEZRFJRIMGF4dWVMGGyr1x+073AtYP3C3OfxuYIa1LK1SRknaIbt1P+7l
KrFcrrgabix5b42DJFiAqRzPNffN38eqnNV5i06jwVsIeY7i67bHk+IP2hL9d4X0
zK93kmeELsK6RA2AicTWsnSfqTssmFpqvz2QXVqbRua3S7xuFBBkJAd7laKjq1wx
UFjlRRi9pJjpxVyR10i0ysylFdyJIVYlSjJo1ebfbQKBgQDvKUIBZAXXbsch1xIP
+Cnvf4eg9woz/EX8mtOmaenskMdpsbtd6kZU+lIa2CbHcBGhGOE1sKJfLiuqed88
yeyR7uZ/wZdrcoDcWI4X1HDmrPMRHuDg1ODMiyZPZIK3Pdfy6R3vDehBtGsqnC0N
Brqjk9DW6mdFSdZpEqeAiIyeiwKBgQDEQ82gUGfMmxrs2XXzct5hntC1SA352Qxf
90cNQXewnTenH9Z9PqcDzDTik6b33cc1QBsv7DXs84D7tr86I1WTgzbLjEocd3j/
Bm6eBNGJQ/GjbOTRQdXWYDxo1RhWlAls0+d1V3WxvjwWAi+JOgWMFJP8a1HKEJ6Q
2DZklHogLQKBgQCqngJqv5KzSGJjr+1A20f/hjmaCeOLhrPfLA1GMVUi4X6B1rvW
miWmxhYA9KdlrHvHM9qm1OZhhKy+J8estFlDGu3xwohlrQBlMf/c3D/XMRcO5bqE
axockkC4bvoaA9Klhs1GF+PTzASQF27EVkKcI/3e9MbL1YtS1m4M8l1vVQKBgQCu
T4HrJj5qTD+HqEPH6ndzwDehKdOv2YPSH66tKT4CUD/DYNWA+woep1k4+uZKMmDg
/ISo9WOXhVVDOjVwjz1L/DfIZFrWGY4PAklwctsezIdqHCbFa3FeKq68dLZe/q+4
RiPF5d2T9V8sNNi/ShbvKL+eajqD+mq6Pi1g+zXUKQKBgGuoiGFkBenxKycSVU70
lsGVc+uMt47ulEho36OGQq8GfN/Rp639RESHmRgQRqPvgIuCBywFqZ1Qpl3GG6Fs
tJ4dtaMyZrNT3TWWn2BBKZEbV8Bo8uxYpXg/DqA6MmetbPfttDxm1pYBE0mytYW2
CREeOD4nhUz6TfvHmv6OugbA
-----END PRIVATE KEY-----
